target datalayout = "e-m:e-p270:32:32-p271:32:32-p272:64:64-i64:64-i128:128-f80:128-n8:16:32:64-S128"
target triple = "x86_64-pc-linux-gnu"

@qemuio_misalign = dso_local global i8 0, align 1

; Function Attrs: nounwind sspstrong uwtable
define internal void @qemu_io_free(ptr noundef %0, ptr noundef %1, i64 noundef %2, i1 noundef zeroext %3) #0 {
  %5 = alloca ptr, align 8
  %6 = alloca ptr, align 8
  %7 = alloca i64, align 8
  %8 = alloca i8, align 1
  store ptr %0, ptr %5, align 8
  store ptr %1, ptr %6, align 8
  store i64 %2, ptr %7, align 8
  %9 = zext i1 %3 to i8
  store i8 %9, ptr %8, align 1
  %10 = load i8, ptr @qemuio_misalign, align 1, !range !11, !noundef !12
  %11 = trunc i8 %10 to i1
  br i1 %11, label %12, label %17

12:                                               ; preds = %4
  %13 = load ptr, ptr %6, align 8
  %14 = getelementptr inbounds i8, ptr %13, i64 -16
  store ptr %14, ptr %6, align 8
  %15 = load i64, ptr %7, align 8
  %16 = add i64 %15, 16
  store i64 %16, ptr %7, align 8
  br label %17

17:                                               ; preds = %12, %4
  %18 = load i8, ptr %8, align 1, !range !11, !noundef !12
  %19 = trunc i8 %18 to i1
  br i1 %19, label %20, label %24

20:                                               ; preds = %17
  %21 = load ptr, ptr %5, align 8
  %22 = load ptr, ptr %6, align 8
  %23 = load i64, ptr %7, align 8
  call void @blk_unregister_buf(ptr noundef %21, ptr noundef %22, i64 noundef %23)
  br label %24

24:                                               ; preds = %20, %17
  %25 = load ptr, ptr %6, align 8
  call void @qemu_vfree(ptr noundef %25)
  ret void
}