; Function Attrs: nounwind sspstrong uwtable
define internal fastcc void @qemu_io_free(ptr noundef %0, ptr noundef %1, i64 noundef %2, i1 noundef zeroext %3) unnamed_addr #0 {
  %5 = load i8, ptr @qemuio_misalign, align 1, !range !11, !noundef !12
  %6 = trunc nuw i8 %5 to i1
  %.0.idx = select i1 %6, i64 -16, i64 0
  %.0 = getelementptr inbounds i8, ptr %1, i64 %.0.idx
  br i1 %3, label %7, label %9

7:                                                ; preds = %4
  %8 = add i64 %2, 16
  %.06 = select i1 %6, i64 %8, i64 %2
  tail call void @blk_unregister_buf(ptr noundef %0, ptr noundef %.0, i64 noundef %.06) #26
  br label %9

9:                                                ; preds = %7, %4
  tail call void @qemu_vfree(ptr noundef %.0) #26
  ret void
}